; Function Attrs: mustprogress uwtable
define internal void @"_ZNK2rc10ShrinkableINSt7__cxx1112basic_stringIcSt11char_traitsIcESaIcEEEE14ShrinkableImplINS_10shrinkable6detail13MapShrinkableIN3nix13StorePathNameEZNS_9ArbitraryINSC_11OutputsSpecEvE9arbitraryEvE3$_0EEE5valueEv"(ptr dead_on_unwind noalias writable sret(%"class.std::__cxx11::basic_string") align 8 %0, ptr nocapture noundef nonnull readonly align 8 dereferenceable(32) %1) unnamed_addr #3 align 2 personality ptr @__gxx_personality_v0 {
  %3 = alloca %"struct.nix::StorePathName", align 8
  %4 = getelementptr inbounds i8, ptr %1, i64 16
  %.val = load ptr, ptr %4, align 8, !noalias !221
  call void @llvm.lifetime.start.p0(i64 32, ptr nonnull %3)
  %5 = load ptr, ptr %.val, align 8, !noalias !224
  %6 = load ptr, ptr %5, align 8, !noalias !224
  call void %6(ptr dead_on_unwind nonnull writable sret(%"struct.nix::StorePathName") align 8 %3, ptr noundef nonnull align 8 dereferenceable(8) %.val), !noalias !229
  invoke void @_ZNSt7__cxx1112basic_stringIcSt11char_traitsIcESaIcEEC2ERKS4_(ptr noundef nonnull align 8 dereferenceable(32) %0, ptr noundef nonnull align 8 dereferenceable(32) %3)
          to label %"_ZZN2rc9ArbitraryIN3nix11OutputsSpecEvE9arbitraryEvENK3$_0clB5cxx11ENS1_13StorePathNameE.exit.i" unwind label %13

"_ZZN2rc9ArbitraryIN3nix11OutputsSpecEvE9arbitraryEvENK3$_0clB5cxx11ENS1_13StorePathNameE.exit.i": ; preds = %2
  %7 = load ptr, ptr %3, align 8, !noalias !229
  %8 = getelementptr inbounds i8, ptr %3, i64 16
  %9 = icmp eq ptr %7, %8
  br i1 %9, label %_ZNKSt7__cxx1112basic_stringIcSt11char_traitsIcESaIcEE11_M_is_localEv.exit.thread.i.i.i.i, label %_ZNKSt7__cxx1112basic_stringIcSt11char_traitsIcESaIcEE11_M_is_localEv.exit.i.i.i.i

_ZNKSt7__cxx1112basic_stringIcSt11char_traitsIcESaIcEE11_M_is_localEv.exit.thread.i.i.i.i: ; preds = %"_ZZN2rc9ArbitraryIN3nix11OutputsSpecEvE9arbitraryEvENK3$_0clB5cxx11ENS1_13StorePathNameE.exit.i"
  %10 = getelementptr inbounds i8, ptr %3, i64 8
  %11 = load i64, ptr %10, align 8, !noalias !229
  %12 = icmp ult i64 %11, 16
  call void @llvm.assume(i1 %12)
  br label %"_ZNK2rc10shrinkable6detail13MapShrinkableIN3nix13StorePathNameEZNS_9ArbitraryINS3_11OutputsSpecEvE9arbitraryEvE3$_0E5valueB5cxx11Ev.exit"

_ZNKSt7__cxx1112basic_stringIcSt11char_traitsIcESaIcEE11_M_is_localEv.exit.i.i.i.i: ; preds = %"_ZZN2rc9ArbitraryIN3nix11OutputsSpecEvE9arbitraryEvENK3$_0clB5cxx11ENS1_13StorePathNameE.exit.i"
  call void @_ZdlPv(ptr noundef %7) #23
  br label %"_ZNK2rc10shrinkable6detail13MapShrinkableIN3nix13StorePathNameEZNS_9ArbitraryINS3_11OutputsSpecEvE9arbitraryEvE3$_0E5valueB5cxx11Ev.exit"

13:                                               ; preds = %2
  %14 = landingpad { ptr, i32 }
          cleanup
  call void @_ZN3nix13StorePathNameD2Ev(ptr noundef nonnull align 8 dereferenceable(32) %3) #22
  resume { ptr, i32 } %14

"_ZNK2rc10shrinkable6detail13MapShrinkableIN3nix13StorePathNameEZNS_9ArbitraryINS3_11OutputsSpecEvE9arbitraryEvE3$_0E5valueB5cxx11Ev.exit": ; preds = %_ZNKSt7__cxx1112basic_stringIcSt11char_traitsIcESaIcEE11_M_is_localEv.exit.thread.i.i.i.i, %_ZNKSt7__cxx1112basic_stringIcSt11char_traitsIcESaIcEE11_M_is_localEv.exit.i.i.i.i
  call void @_ZNSaIcED2Ev(ptr noundef nonnull align 1 dereferenceable(1) %3) #22
  call void @llvm.lifetime.end.p0(i64 32, ptr nonnull %3)
  ret void
}